; Function Attrs: mustprogress uwtable
define hidden noundef ptr @pj_fouc(ptr noundef %0) local_unnamed_addr #0 {
  %.not = icmp eq ptr %0, null
  br i1 %.not, label %15, label %2

2:                                                ; preds = %1
  %3 = tail call noalias dereferenceable_or_null(32) ptr @calloc(i64 noundef 1, i64 noundef 32) #5
  %4 = icmp eq ptr %3, null
  br i1 %4, label %5, label %7

5:                                                ; preds = %2
  %6 = tail call noundef ptr @_Z21pj_default_destructorP8PJconstsi(ptr noundef nonnull %0, i32 noundef 4096)
  br label %_Z33pj_projection_specific_setup_foucP8PJconsts.exit

7:                                                ; preds = %2
  %8 = getelementptr inbounds nuw i8, ptr %0, i64 88
  store ptr %3, ptr %8, align 8, !tbaa !3
  %9 = getelementptr inbounds nuw i8, ptr %0, i64 216
  store double 0.000000e+00, ptr %9, align 8, !tbaa !36
  %10 = getelementptr inbounds nuw i8, ptr %0, i64 112
  store ptr @_ZL13sts_s_inverse5PJ_XYP8PJconsts, ptr %10, align 8, !tbaa !37
  %11 = getelementptr inbounds nuw i8, ptr %0, i64 104
  store ptr @_ZL13sts_s_forward5PJ_LPP8PJconsts, ptr %11, align 8, !tbaa !38
  store double 1.000000e+00, ptr %3, align 8, !tbaa !39
  %12 = getelementptr inbounds nuw i8, ptr %3, i64 8
  store double 2.000000e+00, ptr %12, align 8, !tbaa !41
  %13 = getelementptr inbounds nuw i8, ptr %3, i64 16
  store double 5.000000e-01, ptr %13, align 8, !tbaa !42
  %14 = getelementptr inbounds nuw i8, ptr %3, i64 24
  store i32 1, ptr %14, align 8, !tbaa !43
  br label %_Z33pj_projection_specific_setup_foucP8PJconsts.exit

15:                                               ; preds = %1
  %16 = tail call noundef ptr @_Z6pj_newv()
  %17 = icmp eq ptr %16, null
  br i1 %17, label %_Z33pj_projection_specific_setup_foucP8PJconsts.exit, label %18

18:                                               ; preds = %15
  %19 = getelementptr inbounds nuw i8, ptr %16, i64 8
  store ptr @.str, ptr %19, align 8, !tbaa !44
  %20 = getelementptr inbounds nuw i8, ptr %16, i64 16
  store ptr @_ZL8des_fouc, ptr %20, align 8, !tbaa !45
  %21 = getelementptr inbounds nuw i8, ptr %16, i64 360
  store i32 1, ptr %21, align 8, !tbaa !46
  %22 = getelementptr inbounds nuw i8, ptr %16, i64 380
  store i32 4, ptr %22, align 4, !tbaa !47
  %23 = getelementptr inbounds nuw i8, ptr %16, i64 384
  store i32 1, ptr %23, align 8, !tbaa !48
  br label %_Z33pj_projection_specific_setup_foucP8PJconsts.exit

_Z33pj_projection_specific_setup_foucP8PJconsts.exit: ; preds = %7, %5, %15, %18
  %.0 = phi ptr [ %16, %18 ], [ null, %15 ], [ %6, %5 ], [ %0, %7 ]
  ret ptr %.0
}